; ModuleID = '24/2620.c'
source_filename = "24/2620.c"
target datalayout = "e-m:e-p270:32:32-p271:32:32-p272:64:64-i64:64-f80:128-n8:16:32:64-S128"
target triple = "x86_64-pc-linux-gnu"

@.str = private unnamed_addr constant [3 x i8] c"%d\00", align 1
@.str.1 = private unnamed_addr constant [3 x i8] c"%s\00", align 1
@.str.2 = private unnamed_addr constant [4 x i8] c"%s\0A\00", align 1

; Function Attrs: noinline nounwind uwtable
define dso_local void @main() #0 {
  %1 = alloca [201 x [30 x i8]], align 16
  %2 = alloca i32, align 4
  %3 = alloca i32, align 4
  %4 = alloca i32, align 4
  %5 = alloca [201 x i32], align 16
  %6 = alloca i32, align 4
  %7 = bitcast [201 x [30 x i8]]* %1 to i8*
  call void @llvm.memset.p0i8.i64(i8* align 16 %7, i8 0, i64 6030, i1 false)
  %8 = bitcast [201 x i32]* %5 to i8*
  call void @llvm.memset.p0i8.i64(i8* align 16 %8, i8 0, i64 804, i1 false)
  store i32 0, i32* %6, align 4
  %9 = call i32 (i8*, ...) @__isoc99_scanf(i8* getelementptr inbounds ([3 x i8], [3 x i8]* @.str, i64 0, i64 0), i32* %4)
  store i32 0, i32* %2, align 4
  br label %10

10:                                               ; preds = %30, %0
  %11 = load i32, i32* %2, align 4
  %12 = load i32, i32* %4, align 4
  %13 = icmp slt i32 %11, %12
  br i1 %13, label %14, label %33

14:                                               ; preds = %10
  %15 = getelementptr inbounds [201 x [30 x i8]], [201 x [30 x i8]]* %1, i64 0, i64 0
  %16 = load i32, i32* %2, align 4
  %17 = sext i32 %16 to i64
  %18 = getelementptr inbounds [30 x i8], [30 x i8]* %15, i64 %17
  %19 = call i32 (i8*, ...) @__isoc99_scanf(i8* getelementptr inbounds ([3 x i8], [3 x i8]* @.str.1, i64 0, i64 0), [30 x i8]* %18)
  %20 = getelementptr inbounds [201 x [30 x i8]], [201 x [30 x i8]]* %1, i64 0, i64 0
  %21 = load i32, i32* %2, align 4
  %22 = sext i32 %21 to i64
  %23 = getelementptr inbounds [30 x i8], [30 x i8]* %20, i64 %22
  %24 = getelementptr inbounds [30 x i8], [30 x i8]* %23, i64 0, i64 0
  %25 = call i64 @strlen(i8* %24) #4
  %26 = trunc i64 %25 to i32
  %27 = load i32, i32* %2, align 4
  %28 = sext i32 %27 to i64
  %29 = getelementptr inbounds [201 x i32], [201 x i32]* %5, i64 0, i64 %28
  store i32 %26, i32* %29, align 4
  br label %30

30:                                               ; preds = %14
  %31 = load i32, i32* %2, align 4
  %32 = add nsw i32 %31, 1
  store i32 %32, i32* %2, align 4
  br label %10

33:                                               ; preds = %10
  store i32 0, i32* %2, align 4
  br label %34

34:                                               ; preds = %76, %33
  %35 = load i32, i32* %2, align 4
  %36 = load i32, i32* %4, align 4
  %37 = icmp slt i32 %35, %36
  br i1 %37, label %38, label %79

38:                                               ; preds = %34
  store i32 0, i32* %6, align 4
  store i32 0, i32* %3, align 4
  br label %39

39:                                               ; preds = %57, %38
  %40 = load i32, i32* %3, align 4
  %41 = load i32, i32* %4, align 4
  %42 = icmp slt i32 %40, %41
  br i1 %42, label %43, label %60

43:                                               ; preds = %39
  %44 = getelementptr inbounds [201 x i32], [201 x i32]* %5, i64 0, i64 0
  %45 = load i32, i32* %2, align 4
  %46 = sext i32 %45 to i64
  %47 = getelementptr inbounds i32, i32* %44, i64 %46
  %48 = load i32, i32* %47, align 4
  %49 = getelementptr inbounds [201 x i32], [201 x i32]* %5, i64 0, i64 0
  %50 = load i32, i32* %3, align 4
  %51 = sext i32 %50 to i64
  %52 = getelementptr inbounds i32, i32* %49, i64 %51
  %53 = load i32, i32* %52, align 4
  %54 = icmp slt i32 %48, %53
  br i1 %54, label %55, label %56

55:                                               ; preds = %43
  store i32 1, i32* %6, align 4
  br label %60

56:                                               ; preds = %43
  br label %57

57:                                               ; preds = %56
  %58 = load i32, i32* %3, align 4
  %59 = add nsw i32 %58, 1
  store i32 %59, i32* %3, align 4
  br label %39

60:                                               ; preds = %55, %39
  %61 = load i32, i32* %6, align 4
  %62 = icmp eq i32 %61, 1
  br i1 %62, label %63, label %64

63:                                               ; preds = %60
  br label %76

64:                                               ; preds = %60
  %65 = load i32, i32* %6, align 4
  %66 = icmp eq i32 %65, 0
  br i1 %66, label %67, label %74

67:                                               ; preds = %64
  %68 = getelementptr inbounds [201 x [30 x i8]], [201 x [30 x i8]]* %1, i64 0, i64 0
  %69 = load i32, i32* %2, align 4
  %70 = sext i32 %69 to i64
  %71 = getelementptr inbounds [30 x i8], [30 x i8]* %68, i64 %70
  %72 = getelementptr inbounds [30 x i8], [30 x i8]* %71, i64 0, i64 0
  %73 = call i32 (i8*, ...) @printf(i8* getelementptr inbounds ([4 x i8], [4 x i8]* @.str.2, i64 0, i64 0), i8* %72)
  br label %79

74:                                               ; preds = %64
  br label %75

75:                                               ; preds = %74
  br label %76

76:                                               ; preds = %75, %63
  %77 = load i32, i32* %2, align 4
  %78 = add nsw i32 %77, 1
  store i32 %78, i32* %2, align 4
  br label %34

79:                                               ; preds = %67, %34
  store i32 0, i32* %2, align 4
  br label %80

80:                                               ; preds = %122, %79
  %81 = load i32, i32* %2, align 4
  %82 = load i32, i32* %4, align 4
  %83 = icmp slt i32 %81, %82
  br i1 %83, label %84, label %125

84:                                               ; preds = %80
  store i32 0, i32* %6, align 4
  store i32 0, i32* %3, align 4
  br label %85

85:                                               ; preds = %103, %84
  %86 = load i32, i32* %3, align 4
  %87 = load i32, i32* %4, align 4
  %88 = icmp slt i32 %86, %87
  br i1 %88, label %89, label %106

89:                                               ; preds = %85
  %90 = getelementptr inbounds [201 x i32], [201 x i32]* %5, i64 0, i64 0
  %91 = load i32, i32* %2, align 4
  %92 = sext i32 %91 to i64
  %93 = getelementptr inbounds i32, i32* %90, i64 %92
  %94 = load i32, i32* %93, align 4
  %95 = getelementptr inbounds [201 x i32], [201 x i32]* %5, i64 0, i64 0
  %96 = load i32, i32* %3, align 4
  %97 = sext i32 %96 to i64
  %98 = getelementptr inbounds i32, i32* %95, i64 %97
  %99 = load i32, i32* %98, align 4
  %100 = icmp sgt i32 %94, %99
  br i1 %100, label %101, label %102

101:                                              ; preds = %89
  store i32 1, i32* %6, align 4
  br label %106

102:                                              ; preds = %89
  br label %103

103:                                              ; preds = %102
  %104 = load i32, i32* %3, align 4
  %105 = add nsw i32 %104, 1
  store i32 %105, i32* %3, align 4
  br label %85

106:                                              ; preds = %101, %85
  %107 = load i32, i32* %6, align 4
  %108 = icmp eq i32 %107, 1
  br i1 %108, label %109, label %110

109:                                              ; preds = %106
  br label %122

110:                                              ; preds = %106
  %111 = load i32, i32* %6, align 4
  %112 = icmp eq i32 %111, 0
  br i1 %112, label %113, label %120

113:                                              ; preds = %110
  %114 = getelementptr inbounds [201 x [30 x i8]], [201 x [30 x i8]]* %1, i64 0, i64 0
  %115 = load i32, i32* %2, align 4
  %116 = sext i32 %115 to i64
  %117 = getelementptr inbounds [30 x i8], [30 x i8]* %114, i64 %116
  %118 = getelementptr inbounds [30 x i8], [30 x i8]* %117, i64 0, i64 0
  %119 = call i32 (i8*, ...) @printf(i8* getelementptr inbounds ([4 x i8], [4 x i8]* @.str.2, i64 0, i64 0), i8* %118)
  br label %125

120:                                              ; preds = %110
  br label %121

121:                                              ; preds = %120
  br label %122

122:                                              ; preds = %121, %109
  %123 = load i32, i32* %2, align 4
  %124 = add nsw i32 %123, 1
  store i32 %124, i32* %2, align 4
  br label %80

125:                                              ; preds = %113, %80
  ret void
}

; Function Attrs: argmemonly nounwind willreturn
declare void @llvm.memset.p0i8.i64(i8* nocapture writeonly, i8, i64, i1 immarg) #1

declare dso_local i32 @__isoc99_scanf(i8*, ...) #2

; Function Attrs: nounwind readonly
declare dso_local i64 @strlen(i8*) #3

declare dso_local i32 @printf(i8*, ...) #2


!llvm.module.flags = !{!0}
!llvm.ident = !{!1}

!0 = !{i32 1, !"wchar_size", i32 4}
!1 = !{!"clang version 10.0.0-4ubuntu1 "}
